target datalayout = "e-m:e-p270:32:32-p271:32:32-p272:64:64-i64:64-i128:128-f80:128-n8:16:32:64-S128"
target triple = "x86_64-pc-linux-gnu"

%struct.CbsP_Par_t_ = type { i32, i32, i32, i32, i32, i32, i32, i32, i32, i32, i32, i32, i32, i32, i32, i32, i32, i32, i32, i32, i32, i32, i32, i32, i64, i64, i64, i64, i64, i64, i64, i64, i64, i32, i32, i32 }
%struct.CbsP_Man_t_ = type { %struct.CbsP_Par_t_, ptr, %struct.CbsP_Que_t_, %struct.CbsP_Que_t_, %struct.CbsP_Que_t_, ptr, ptr, ptr, ptr, ptr, i32, i32, i32, i32, i32, i32, i32, i64, i64, i64, i64 }
%struct.CbsP_Que_t_ = type { i32, i32, i32, ptr }
%struct.Vec_Int_t_ = type { i32, i32, ptr }
%struct.Gia_Man_t_ = type { ptr, ptr, i32, i32, i32, i32, ptr, ptr, i32, i32, i32, ptr, ptr, %struct.Vec_Int_t_, %struct.Vec_Int_t_, i32, i32, i32, %struct.Vec_Int_t_, ptr, ptr, ptr, i32, i32, i32, i32, ptr, ptr, ptr, ptr, ptr, i32, i32, ptr, i32, ptr, ptr, ptr, ptr, ptr, ptr, ptr, ptr, ptr, ptr, ptr, ptr, ptr, ptr, ptr, ptr, ptr, ptr, %struct.Vec_Int_t_, %struct.Vec_Int_t_, ptr, ptr, ptr, ptr, ptr, ptr, ptr, ptr, ptr, ptr, ptr, ptr, ptr, ptr, ptr, ptr, ptr, ptr, ptr, ptr, ptr, i32, float, float, ptr, ptr, i32, ptr, ptr, ptr, ptr, ptr, ptr, ptr, ptr, ptr, ptr, ptr, ptr, ptr, ptr, ptr, i64, i64, ptr, ptr, i32, i32, i32, i32, i32, i32, i32, i32, i32, i32, i32, i32, ptr, ptr, ptr, ptr, ptr, ptr, ptr, ptr, i32, i32, i32, ptr, i32, i32, ptr, ptr, ptr, ptr, ptr, ptr, i32, i32, ptr, %struct.Vec_Int_t_, %struct.Vec_Int_t_, %struct.Vec_Int_t_, ptr, ptr, ptr, i32, i32, i32, i32, ptr, ptr, ptr, ptr, ptr }

; Function Attrs: inlinehint nounwind uwtable
define internal i32 @Gia_ObjId(ptr noundef %0, ptr noundef %1) #6 {
  %3 = alloca ptr, align 8
  %4 = alloca ptr, align 8
  store ptr %0, ptr %3, align 8, !tbaa !51
  store ptr %1, ptr %4, align 8, !tbaa !95
  %5 = load ptr, ptr %4, align 8, !tbaa !95
  %6 = load ptr, ptr %3, align 8, !tbaa !51
  %7 = getelementptr inbounds nuw %struct.Gia_Man_t_, ptr %6, i32 0, i32 6
  %8 = load ptr, ptr %7, align 8, !tbaa !162
  %9 = ptrtoint ptr %5 to i64
  %10 = ptrtoint ptr %8 to i64
  %11 = sub i64 %9, %10
  %12 = sdiv exact i64 %11, 12
  %13 = trunc i64 %12 to i32
  ret i32 %13
}

; Function Attrs: inlinehint nounwind uwtable
define internal void @Vec_IntShrink(ptr noundef %0, i32 noundef %1) #6 {
  %3 = alloca ptr, align 8
  %4 = alloca i32, align 4
  store ptr %0, ptr %3, align 8, !tbaa !65
  store i32 %1, ptr %4, align 4, !tbaa !38
  %5 = load i32, ptr %4, align 4, !tbaa !38
  %6 = load ptr, ptr %3, align 8, !tbaa !65
  %7 = getelementptr inbounds nuw %struct.Vec_Int_t_, ptr %6, i32 0, i32 1
  store i32 %5, ptr %7, align 4, !tbaa !66
  ret void
}

; Function Attrs: inlinehint nounwind uwtable
define internal void @CbsP_VarUnassign(ptr noundef %0, ptr noundef %1) #6 {
  %3 = alloca ptr, align 8
  %4 = alloca ptr, align 8
  store ptr %0, ptr %3, align 8, !tbaa !36
  store ptr %1, ptr %4, align 8, !tbaa !95
  %5 = load ptr, ptr %4, align 8, !tbaa !95
  %6 = load i64, ptr %5, align 4
  %7 = and i64 %6, -1073741825
  %8 = or i64 %7, 0
  store i64 %8, ptr %5, align 4
  %9 = load ptr, ptr %4, align 8, !tbaa !95
  %10 = load i64, ptr %9, align 4
  %11 = and i64 %10, -4611686018427387905
  %12 = or i64 %11, 0
  store i64 %12, ptr %9, align 4
  %13 = load ptr, ptr %3, align 8, !tbaa !36
  %14 = getelementptr inbounds nuw %struct.CbsP_Man_t_, ptr %13, i32 0, i32 7
  %15 = load ptr, ptr %14, align 8, !tbaa !64
  %16 = getelementptr inbounds nuw %struct.Vec_Int_t_, ptr %15, i32 0, i32 2
  %17 = load ptr, ptr %16, align 8, !tbaa !70
  %18 = load ptr, ptr %3, align 8, !tbaa !36
  %19 = getelementptr inbounds nuw %struct.CbsP_Man_t_, ptr %18, i32 0, i32 1
  %20 = load ptr, ptr %19, align 8, !tbaa !63
  %21 = load ptr, ptr %4, align 8, !tbaa !95
  %22 = call i32 @Gia_ObjId(ptr noundef %20, ptr noundef %21)
  %23 = sext i32 %22 to i64
  %24 = getelementptr inbounds i32, ptr %17, i64 %23
  store i32 -1, ptr %24, align 4, !tbaa !38
  ret void
}

; Function Attrs: inlinehint nounwind uwtable
define internal i32 @CbsP_ManCheckPropLimits(ptr noundef %0) #6 {
  %2 = alloca ptr, align 8
  store ptr %0, ptr %2, align 8, !tbaa !36
  %3 = load ptr, ptr %2, align 8, !tbaa !36
  %4 = getelementptr inbounds nuw %struct.CbsP_Man_t_, ptr %3, i32 0, i32 0
  %5 = getelementptr inbounds nuw %struct.CbsP_Par_t_, ptr %4, i32 0, i32 14
  %6 = load i32, ptr %5, align 8, !tbaa !100
  %7 = load ptr, ptr %2, align 8, !tbaa !36
  %8 = getelementptr inbounds nuw %struct.CbsP_Man_t_, ptr %7, i32 0, i32 0
  %9 = getelementptr inbounds nuw %struct.CbsP_Par_t_, ptr %8, i32 0, i32 35
  %10 = load i32, ptr %9, align 8, !tbaa !101
  %11 = icmp sgt i32 %6, %10
  %12 = zext i1 %11 to i32
  ret i32 %12
}

; Function Attrs: inlinehint nounwind uwtable
define internal i32 @Abc_MaxInt(i32 noundef %0, i32 noundef %1) #6 {
  %3 = alloca i32, align 4
  %4 = alloca i32, align 4
  store i32 %0, ptr %3, align 4, !tbaa !38
  store i32 %1, ptr %4, align 4, !tbaa !38
  %5 = load i32, ptr %3, align 4, !tbaa !38
  %6 = load i32, ptr %4, align 4, !tbaa !38
  %7 = icmp sgt i32 %5, %6
  br i1 %7, label %8, label %10

8:                                                ; preds = %2
  %9 = load i32, ptr %3, align 4, !tbaa !38
  br label %12

10:                                               ; preds = %2
  %11 = load i32, ptr %4, align 4, !tbaa !38
  br label %12

12:                                               ; preds = %10, %8
  %13 = phi i32 [ %9, %8 ], [ %11, %10 ]
  ret i32 %13
}

; Function Attrs: inlinehint nounwind uwtable
define internal void @CbsP_ManCancelUntil(ptr noundef %0, i32 noundef %1) #6 {
  %3 = alloca ptr, align 8
  %4 = alloca i32, align 4
  %5 = alloca ptr, align 8
  %6 = alloca i32, align 4
  store ptr %0, ptr %3, align 8, !tbaa !36
  store i32 %1, ptr %4, align 4, !tbaa !38
  call void @llvm.lifetime.start.p0(i64 8, ptr %5) #11
  call void @llvm.lifetime.start.p0(i64 4, ptr %6) #11
  %7 = load i32, ptr %4, align 4, !tbaa !38
  %8 = load ptr, ptr %3, align 8, !tbaa !36
  %9 = getelementptr inbounds nuw %struct.CbsP_Man_t_, ptr %8, i32 0, i32 2
  %10 = getelementptr inbounds nuw %struct.CbsP_Que_t_, ptr %9, i32 0, i32 0
  store i32 %7, ptr %10, align 8, !tbaa !93
  %11 = load ptr, ptr %3, align 8, !tbaa !36
  %12 = getelementptr inbounds nuw %struct.CbsP_Man_t_, ptr %11, i32 0, i32 2
  %13 = getelementptr inbounds nuw %struct.CbsP_Que_t_, ptr %12, i32 0, i32 0
  %14 = load i32, ptr %13, align 8, !tbaa !93
  store i32 %14, ptr %6, align 4, !tbaa !38
  br label %15

15:                                               ; preds = %37, %2
  %16 = load i32, ptr %6, align 4, !tbaa !38
  %17 = load ptr, ptr %3, align 8, !tbaa !36
  %18 = getelementptr inbounds nuw %struct.CbsP_Man_t_, ptr %17, i32 0, i32 2
  %19 = getelementptr inbounds nuw %struct.CbsP_Que_t_, ptr %18, i32 0, i32 1
  %20 = load i32, ptr %19, align 4, !tbaa !94
  %21 = icmp slt i32 %16, %20
  br i1 %21, label %22, label %32

22:                                               ; preds = %15
  %23 = load ptr, ptr %3, align 8, !tbaa !36
  %24 = getelementptr inbounds nuw %struct.CbsP_Man_t_, ptr %23, i32 0, i32 2
  %25 = getelementptr inbounds nuw %struct.CbsP_Que_t_, ptr %24, i32 0, i32 3
  %26 = load ptr, ptr %25, align 8, !tbaa !55
  %27 = load i32, ptr %6, align 4, !tbaa !38
  %28 = sext i32 %27 to i64
  %29 = getelementptr inbounds ptr, ptr %26, i64 %28
  %30 = load ptr, ptr %29, align 8, !tbaa !95
  store ptr %30, ptr %5, align 8, !tbaa !95
  %31 = icmp ne ptr %30, null
  br label %32

32:                                               ; preds = %22, %15
  %33 = phi i1 [ false, %15 ], [ %31, %22 ]
  br i1 %33, label %34, label %40

34:                                               ; preds = %32
  %35 = load ptr, ptr %3, align 8, !tbaa !36
  %36 = load ptr, ptr %5, align 8, !tbaa !95
  call void @CbsP_VarUnassign(ptr noundef %35, ptr noundef %36)
  br label %37

37:                                               ; preds = %34
  %38 = load i32, ptr %6, align 4, !tbaa !38
  %39 = add nsw i32 %38, 1
  store i32 %39, ptr %6, align 4, !tbaa !38
  br label %15, !llvm.loop !122

40:                                               ; preds = %32
  %41 = load i32, ptr %4, align 4, !tbaa !38
  %42 = load ptr, ptr %3, align 8, !tbaa !36
  %43 = getelementptr inbounds nuw %struct.CbsP_Man_t_, ptr %42, i32 0, i32 2
  %44 = getelementptr inbounds nuw %struct.CbsP_Que_t_, ptr %43, i32 0, i32 1
  store i32 %41, ptr %44, align 4, !tbaa !94
  %45 = load ptr, ptr %3, align 8, !tbaa !36
  %46 = getelementptr inbounds nuw %struct.CbsP_Man_t_, ptr %45, i32 0, i32 6
  %47 = load ptr, ptr %46, align 8, !tbaa !61
  %48 = load i32, ptr %4, align 4, !tbaa !38
  %49 = mul nsw i32 3, %48
  call void @Vec_IntShrink(ptr noundef %47, i32 noundef %49)
  call void @llvm.lifetime.end.p0(i64 4, ptr %6) #11
  call void @llvm.lifetime.end.p0(i64 8, ptr %5) #11
  ret void
}

; Function Attrs: inlinehint nounwind uwtable
define internal i32 @CbsP_ManCheckLimits(ptr noundef %0) #6 {
  %2 = alloca ptr, align 8
  store ptr %0, ptr %2, align 8, !tbaa !36
  %3 = load ptr, ptr %2, align 8, !tbaa !36
  %4 = call i32 @CbsP_ManCheckPropLimits(ptr noundef %3)
  %5 = icmp ne i32 %4, 0
  br i1 %5, label %46, label %6

6:                                                ; preds = %1
  %7 = load ptr, ptr %2, align 8, !tbaa !36
  %8 = getelementptr inbounds nuw %struct.CbsP_Man_t_, ptr %7, i32 0, i32 0
  %9 = getelementptr inbounds nuw %struct.CbsP_Par_t_, ptr %8, i32 0, i32 12
  %10 = load i32, ptr %9, align 8, !tbaa !105
  %11 = load ptr, ptr %2, align 8, !tbaa !36
  %12 = getelementptr inbounds nuw %struct.CbsP_Man_t_, ptr %11, i32 0, i32 0
  %13 = getelementptr inbounds nuw %struct.CbsP_Par_t_, ptr %12, i32 0, i32 33
  %14 = load i32, ptr %13, align 8, !tbaa !111
  %15 = icmp sgt i32 %10, %14
  br i1 %15, label %46, label %16

16:                                               ; preds = %6
  %17 = load ptr, ptr %2, align 8, !tbaa !36
  %18 = getelementptr inbounds nuw %struct.CbsP_Man_t_, ptr %17, i32 0, i32 0
  %19 = getelementptr inbounds nuw %struct.CbsP_Par_t_, ptr %18, i32 0, i32 13
  %20 = load i32, ptr %19, align 4, !tbaa !112
  %21 = load ptr, ptr %2, align 8, !tbaa !36
  %22 = getelementptr inbounds nuw %struct.CbsP_Man_t_, ptr %21, i32 0, i32 0
  %23 = getelementptr inbounds nuw %struct.CbsP_Par_t_, ptr %22, i32 0, i32 34
  %24 = load i32, ptr %23, align 4, !tbaa !113
  %25 = icmp sgt i32 %20, %24
  br i1 %25, label %46, label %26

26:                                               ; preds = %16
  %27 = load ptr, ptr %2, align 8, !tbaa !36
  %28 = getelementptr inbounds nuw %struct.CbsP_Man_t_, ptr %27, i32 0, i32 0
  %29 = getelementptr inbounds nuw %struct.CbsP_Par_t_, ptr %28, i32 0, i32 4
  %30 = load i32, ptr %29, align 8, !tbaa !104
  %31 = load ptr, ptr %2, align 8, !tbaa !36
  %32 = getelementptr inbounds nuw %struct.CbsP_Man_t_, ptr %31, i32 0, i32 0
  %33 = getelementptr inbounds nuw %struct.CbsP_Par_t_, ptr %32, i32 0, i32 1
  %34 = load i32, ptr %33, align 4, !tbaa !114
  %35 = icmp sgt i32 %30, %34
  br i1 %35, label %46, label %36

36:                                               ; preds = %26
  %37 = load ptr, ptr %2, align 8, !tbaa !36
  %38 = getelementptr inbounds nuw %struct.CbsP_Man_t_, ptr %37, i32 0, i32 0
  %39 = getelementptr inbounds nuw %struct.CbsP_Par_t_, ptr %38, i32 0, i32 2
  %40 = load i32, ptr %39, align 8, !tbaa !110
  %41 = load ptr, ptr %2, align 8, !tbaa !36
  %42 = getelementptr inbounds nuw %struct.CbsP_Man_t_, ptr %41, i32 0, i32 0
  %43 = getelementptr inbounds nuw %struct.CbsP_Par_t_, ptr %42, i32 0, i32 0
  %44 = load i32, ptr %43, align 8, !tbaa !39
  %45 = icmp sgt i32 %40, %44
  br label %46

46:                                               ; preds = %36, %26, %16, %6, %1
  %47 = phi i1 [ true, %26 ], [ true, %16 ], [ true, %6 ], [ true, %1 ], [ %45, %36 ]
  %48 = zext i1 %47 to i32
  ret i32 %48
}

; Function Attrs: nounwind uwtable
define i32 @CbsP_ManSolve(ptr noundef %0, ptr noundef %1) #0 {
  %3 = alloca ptr, align 8
  %4 = alloca ptr, align 8
  %5 = alloca i32, align 4
  store ptr %0, ptr %3, align 8, !tbaa !36
  store ptr %1, ptr %4, align 8, !tbaa !95
  call void @llvm.lifetime.start.p0(i64 4, ptr %5) #11
  store i32 0, ptr %5, align 4, !tbaa !38
  %6 = load ptr, ptr %3, align 8, !tbaa !36
  %7 = getelementptr inbounds nuw %struct.CbsP_Man_t_, ptr %6, i32 0, i32 0
  %8 = getelementptr inbounds nuw %struct.CbsP_Par_t_, ptr %7, i32 0, i32 3
  store i32 0, ptr %8, align 4, !tbaa !126
  %9 = load ptr, ptr %3, align 8, !tbaa !36
  %10 = getelementptr inbounds nuw %struct.CbsP_Man_t_, ptr %9, i32 0, i32 0
  %11 = getelementptr inbounds nuw %struct.CbsP_Par_t_, ptr %10, i32 0, i32 4
  store i32 0, ptr %11, align 8, !tbaa !104
  %12 = load ptr, ptr %3, align 8, !tbaa !36
  %13 = getelementptr inbounds nuw %struct.CbsP_Man_t_, ptr %12, i32 0, i32 0
  %14 = getelementptr inbounds nuw %struct.CbsP_Par_t_, ptr %13, i32 0, i32 2
  store i32 0, ptr %14, align 8, !tbaa !110
  %15 = load ptr, ptr %3, align 8, !tbaa !36
  %16 = load ptr, ptr %4, align 8, !tbaa !95
  call void @CbsP_ManAssign(ptr noundef %15, ptr noundef %16, i32 noundef 0, ptr noundef null, ptr noundef null)
  %17 = load ptr, ptr %3, align 8, !tbaa !36
  %18 = call i32 @CbsP_ManSolve_rec(ptr noundef %17, i32 noundef 0)
  %19 = icmp ne i32 %18, 0
  br i1 %19, label %29, label %20

20:                                               ; preds = %2
  %21 = load ptr, ptr %3, align 8, !tbaa !36
  %22 = call i32 @CbsP_ManCheckLimits(ptr noundef %21)
  %23 = icmp ne i32 %22, 0
  br i1 %23, label %29, label %24

24:                                               ; preds = %20
  %25 = load ptr, ptr %3, align 8, !tbaa !36
  %26 = load ptr, ptr %3, align 8, !tbaa !36
  %27 = getelementptr inbounds nuw %struct.CbsP_Man_t_, ptr %26, i32 0, i32 8
  %28 = load ptr, ptr %27, align 8, !tbaa !60
  call void @CbsP_ManSaveModel(ptr noundef %25, ptr noundef %28)
  br label %30

29:                                               ; preds = %20, %2
  store i32 1, ptr %5, align 4, !tbaa !38
  br label %30

30:                                               ; preds = %29, %24
  %31 = load ptr, ptr %3, align 8, !tbaa !36
  call void @CbsP_ManCancelUntil(ptr noundef %31, i32 noundef 0)
  %32 = load ptr, ptr %3, align 8, !tbaa !36
  %33 = getelementptr inbounds nuw %struct.CbsP_Man_t_, ptr %32, i32 0, i32 3
  %34 = getelementptr inbounds nuw %struct.CbsP_Que_t_, ptr %33, i32 0, i32 1
  store i32 0, ptr %34, align 4, !tbaa !98
  %35 = load ptr, ptr %3, align 8, !tbaa !36
  %36 = getelementptr inbounds nuw %struct.CbsP_Man_t_, ptr %35, i32 0, i32 3
  %37 = getelementptr inbounds nuw %struct.CbsP_Que_t_, ptr %36, i32 0, i32 0
  store i32 0, ptr %37, align 8, !tbaa !97
  %38 = load ptr, ptr %3, align 8, !tbaa !36
  %39 = getelementptr inbounds nuw %struct.CbsP_Man_t_, ptr %38, i32 0, i32 4
  %40 = getelementptr inbounds nuw %struct.CbsP_Que_t_, ptr %39, i32 0, i32 1
  store i32 1, ptr %40, align 4, !tbaa !58
  %41 = load ptr, ptr %3, align 8, !tbaa !36
  %42 = getelementptr inbounds nuw %struct.CbsP_Man_t_, ptr %41, i32 0, i32 4
  %43 = getelementptr inbounds nuw %struct.CbsP_Que_t_, ptr %42, i32 0, i32 0
  store i32 1, ptr %43, align 8, !tbaa !59
  %44 = load ptr, ptr %3, align 8, !tbaa !36
  %45 = getelementptr inbounds nuw %struct.CbsP_Man_t_, ptr %44, i32 0, i32 0
  %46 = getelementptr inbounds nuw %struct.CbsP_Par_t_, ptr %45, i32 0, i32 2
  %47 = load i32, ptr %46, align 8, !tbaa !110
  %48 = load ptr, ptr %3, align 8, !tbaa !36
  %49 = getelementptr inbounds nuw %struct.CbsP_Man_t_, ptr %48, i32 0, i32 0
  %50 = getelementptr inbounds nuw %struct.CbsP_Par_t_, ptr %49, i32 0, i32 5
  %51 = load i32, ptr %50, align 4, !tbaa !127
  %52 = add nsw i32 %51, %47
  store i32 %52, ptr %50, align 4, !tbaa !127
  %53 = load ptr, ptr %3, align 8, !tbaa !36
  %54 = getelementptr inbounds nuw %struct.CbsP_Man_t_, ptr %53, i32 0, i32 0
  %55 = getelementptr inbounds nuw %struct.CbsP_Par_t_, ptr %54, i32 0, i32 6
  %56 = load i32, ptr %55, align 8, !tbaa !128
  %57 = load ptr, ptr %3, align 8, !tbaa !36
  %58 = getelementptr inbounds nuw %struct.CbsP_Man_t_, ptr %57, i32 0, i32 0
  %59 = getelementptr inbounds nuw %struct.CbsP_Par_t_, ptr %58, i32 0, i32 4
  %60 = load i32, ptr %59, align 8, !tbaa !104
  %61 = call i32 @Abc_MaxInt(i32 noundef %56, i32 noundef %60)
  %62 = load ptr, ptr %3, align 8, !tbaa !36
  %63 = getelementptr inbounds nuw %struct.CbsP_Man_t_, ptr %62, i32 0, i32 0
  %64 = getelementptr inbounds nuw %struct.CbsP_Par_t_, ptr %63, i32 0, i32 6
  store i32 %61, ptr %64, align 8, !tbaa !128
  %65 = load ptr, ptr %3, align 8, !tbaa !36
  %66 = call i32 @CbsP_ManCheckLimits(ptr noundef %65)
  %67 = icmp ne i32 %66, 0
  br i1 %67, label %68, label %69

68:                                               ; preds = %30
  store i32 -1, ptr %5, align 4, !tbaa !38
  br label %69

69:                                               ; preds = %68, %30
  %70 = load i32, ptr %5, align 4, !tbaa !38
  call void @llvm.lifetime.end.p0(i64 4, ptr %5) #11
  ret i32 %70
}