; Function Attrs: nounwind uwtable
define range(i32 -1, 2) i32 @CbsP_ManSolve(ptr noundef initializes((8, 20)) %0, ptr noundef %1) local_unnamed_addr #10 {
  %3 = getelementptr inbounds nuw i8, ptr %0, i64 12
  store i32 0, ptr %3, align 4, !tbaa !116
  %4 = getelementptr inbounds nuw i8, ptr %0, i64 16
  store i32 0, ptr %4, align 8, !tbaa !99
  %5 = getelementptr inbounds nuw i8, ptr %0, i64 8
  store i32 0, ptr %5, align 8, !tbaa !101
  tail call fastcc void @CbsP_ManAssign(ptr noundef %0, ptr noundef %1, i32 noundef 0, ptr noundef null, ptr noundef null)
  %6 = tail call i32 @CbsP_ManSolve_rec(ptr noundef %0, i32 noundef 0)
  %.not = icmp eq i32 %6, 0
  br i1 %.not, label %7, label %CbsP_ManCheckLimits.exit.thread

7:                                                ; preds = %2
  %8 = getelementptr i8, ptr %0, i64 56
  %.val.i = load i32, ptr %8, align 8, !tbaa !90
  %9 = getelementptr i8, ptr %0, i64 176
  %.val9.i = load i32, ptr %9, align 8, !tbaa !91
  %.not.i = icmp sgt i32 %.val.i, %.val9.i
  br i1 %.not.i, label %CbsP_ManCheckLimits.exit.thread, label %10

10:                                               ; preds = %7
  %11 = getelementptr inbounds nuw i8, ptr %0, i64 48
  %12 = load i32, ptr %11, align 8, !tbaa !95
  %13 = getelementptr inbounds nuw i8, ptr %0, i64 168
  %14 = load i32, ptr %13, align 8, !tbaa !96
  %15 = icmp sgt i32 %12, %14
  br i1 %15, label %CbsP_ManCheckLimits.exit.thread, label %16

16:                                               ; preds = %10
  %17 = getelementptr inbounds nuw i8, ptr %0, i64 52
  %18 = load i32, ptr %17, align 4, !tbaa !97
  %19 = getelementptr inbounds nuw i8, ptr %0, i64 172
  %20 = load i32, ptr %19, align 4, !tbaa !98
  %21 = icmp sgt i32 %18, %20
  br i1 %21, label %CbsP_ManCheckLimits.exit.thread, label %22

22:                                               ; preds = %16
  %23 = load i32, ptr %4, align 8, !tbaa !99
  %24 = getelementptr inbounds nuw i8, ptr %0, i64 4
  %25 = load i32, ptr %24, align 4, !tbaa !100
  %26 = icmp sgt i32 %23, %25
  br i1 %26, label %CbsP_ManCheckLimits.exit.thread, label %CbsP_ManCheckLimits.exit

CbsP_ManCheckLimits.exit:                         ; preds = %22
  %27 = load i32, ptr %5, align 8, !tbaa !101
  %28 = load i32, ptr %0, align 8, !tbaa !20
  %.not30 = icmp sgt i32 %27, %28
  br i1 %.not30, label %CbsP_ManCheckLimits.exit.thread, label %29

29:                                               ; preds = %CbsP_ManCheckLimits.exit
  %30 = getelementptr inbounds nuw i8, ptr %0, i64 288
  %31 = load ptr, ptr %30, align 8, !tbaa !57
  tail call fastcc void @CbsP_ManSaveModel(ptr noundef nonnull %0, ptr noundef %31)
  br label %CbsP_ManCheckLimits.exit.thread

CbsP_ManCheckLimits.exit.thread:                  ; preds = %7, %10, %16, %22, %2, %CbsP_ManCheckLimits.exit, %29
  %.0 = phi i32 [ 0, %29 ], [ 1, %CbsP_ManCheckLimits.exit ], [ 1, %2 ], [ 1, %22 ], [ 1, %16 ], [ 1, %10 ], [ 1, %7 ]
  %32 = getelementptr inbounds nuw i8, ptr %0, i64 192
  store i32 0, ptr %32, align 8, !tbaa !82
  %33 = getelementptr inbounds nuw i8, ptr %0, i64 208
  %34 = getelementptr inbounds nuw i8, ptr %0, i64 196
  %35 = load i32, ptr %34, align 4, !tbaa !83
  %36 = icmp sgt i32 %35, 0
  br i1 %36, label %.lr.ph.i, label %CbsP_ManCancelUntil.exit

.lr.ph.i:                                         ; preds = %CbsP_ManCheckLimits.exit.thread
  %37 = getelementptr inbounds nuw i8, ptr %0, i64 280
  %38 = getelementptr inbounds nuw i8, ptr %0, i64 184
  br label %39

39:                                               ; preds = %43, %.lr.ph.i
  %indvars.iv.i = phi i64 [ 0, %.lr.ph.i ], [ %indvars.iv.next.i, %43 ]
  %40 = load ptr, ptr %33, align 8, !tbaa !47
  %41 = getelementptr inbounds nuw ptr, ptr %40, i64 %indvars.iv.i
  %42 = load ptr, ptr %41, align 8, !tbaa !84
  %.not.i22 = icmp eq ptr %42, null
  br i1 %.not.i22, label %CbsP_ManCancelUntil.exit, label %43

43:                                               ; preds = %39
  %44 = load i64, ptr %42, align 4
  %45 = and i64 %44, -4611686019501129729
  store i64 %45, ptr %42, align 4
  %46 = load ptr, ptr %37, align 8, !tbaa !80
  %47 = getelementptr inbounds nuw i8, ptr %46, i64 8
  %48 = load ptr, ptr %47, align 8, !tbaa !56
  %49 = load ptr, ptr %38, align 8, !tbaa !64
  %50 = getelementptr i8, ptr %49, i64 32
  %.val.i.i = load ptr, ptr %50, align 8, !tbaa !109
  %51 = ptrtoint ptr %42 to i64
  %52 = ptrtoint ptr %.val.i.i to i64
  %53 = sub i64 %51, %52
  %54 = sdiv exact i64 %53, 12
  %sext.i.i = shl i64 %54, 32
  %55 = ashr exact i64 %sext.i.i, 30
  %56 = getelementptr inbounds i8, ptr %48, i64 %55
  store i32 -1, ptr %56, align 4, !tbaa !81
  %indvars.iv.next.i = add nuw nsw i64 %indvars.iv.i, 1
  %57 = load i32, ptr %34, align 4, !tbaa !83
  %58 = sext i32 %57 to i64
  %59 = icmp slt i64 %indvars.iv.next.i, %58
  br i1 %59, label %39, label %CbsP_ManCancelUntil.exit, !llvm.loop !112

CbsP_ManCancelUntil.exit:                         ; preds = %39, %43, %CbsP_ManCheckLimits.exit.thread
  store i32 0, ptr %34, align 4, !tbaa !83
  %60 = getelementptr inbounds nuw i8, ptr %0, i64 272
  %61 = load ptr, ptr %60, align 8, !tbaa !58
  %62 = getelementptr inbounds nuw i8, ptr %61, i64 4
  store i32 0, ptr %62, align 4, !tbaa !52
  %63 = getelementptr inbounds nuw i8, ptr %0, i64 216
  %64 = getelementptr inbounds nuw i8, ptr %0, i64 220
  store i32 0, ptr %64, align 4, !tbaa !93
  store i32 0, ptr %63, align 8, !tbaa !92
  %65 = getelementptr inbounds nuw i8, ptr %0, i64 240
  %66 = getelementptr inbounds nuw i8, ptr %0, i64 244
  store i32 1, ptr %66, align 4, !tbaa !50
  store i32 1, ptr %65, align 8, !tbaa !51
  %67 = load i32, ptr %5, align 8, !tbaa !101
  %68 = getelementptr inbounds nuw i8, ptr %0, i64 20
  %69 = load i32, ptr %68, align 4, !tbaa !117
  %70 = add nsw i32 %69, %67
  store i32 %70, ptr %68, align 4, !tbaa !117
  %71 = getelementptr inbounds nuw i8, ptr %0, i64 24
  %72 = load i32, ptr %71, align 8, !tbaa !118
  %73 = load i32, ptr %4, align 8, !tbaa !99
  %74 = tail call noundef i32 @llvm.smax.i32(i32 %72, i32 %73)
  store i32 %74, ptr %71, align 8, !tbaa !118
  %75 = getelementptr i8, ptr %0, i64 56
  %.val.i23 = load i32, ptr %75, align 8, !tbaa !90
  %76 = getelementptr i8, ptr %0, i64 176
  %.val9.i24 = load i32, ptr %76, align 8, !tbaa !91
  %.not.i25 = icmp sgt i32 %.val.i23, %.val9.i24
  br i1 %.not.i25, label %CbsP_ManCheckLimits.exit26.thread, label %77

77:                                               ; preds = %CbsP_ManCancelUntil.exit
  %78 = getelementptr inbounds nuw i8, ptr %0, i64 48
  %79 = load i32, ptr %78, align 8, !tbaa !95
  %80 = getelementptr inbounds nuw i8, ptr %0, i64 168
  %81 = load i32, ptr %80, align 8, !tbaa !96
  %82 = icmp sgt i32 %79, %81
  br i1 %82, label %CbsP_ManCheckLimits.exit26.thread, label %83

83:                                               ; preds = %77
  %84 = getelementptr inbounds nuw i8, ptr %0, i64 52
  %85 = load i32, ptr %84, align 4, !tbaa !97
  %86 = getelementptr inbounds nuw i8, ptr %0, i64 172
  %87 = load i32, ptr %86, align 4, !tbaa !98
  %88 = icmp sgt i32 %85, %87
  br i1 %88, label %CbsP_ManCheckLimits.exit26.thread, label %89

89:                                               ; preds = %83
  %90 = getelementptr inbounds nuw i8, ptr %0, i64 4
  %91 = load i32, ptr %90, align 4, !tbaa !100
  %92 = icmp sgt i32 %73, %91
  br i1 %92, label %CbsP_ManCheckLimits.exit26.thread, label %CbsP_ManCheckLimits.exit26

CbsP_ManCheckLimits.exit26:                       ; preds = %89
  %93 = load i32, ptr %0, align 8, !tbaa !20
  %94 = icmp sle i32 %67, %93
  %cond.fr = freeze i1 %94
  %spec.select = select i1 %cond.fr, i32 %.0, i32 -1
  br label %CbsP_ManCheckLimits.exit26.thread

CbsP_ManCheckLimits.exit26.thread:                ; preds = %CbsP_ManCheckLimits.exit26, %CbsP_ManCancelUntil.exit, %77, %83, %89
  %95 = phi i32 [ -1, %89 ], [ -1, %83 ], [ -1, %77 ], [ -1, %CbsP_ManCancelUntil.exit ], [ %spec.select, %CbsP_ManCheckLimits.exit26 ]
  ret i32 %95
}